target datalayout = "e-m:e-p270:32:32-p271:32:32-p272:64:64-i64:64-i128:128-f80:128-n8:16:32:64-S128"
target triple = "x86_64-pc-linux-gnu"

%"class.llvm::TypeSize" = type { %"class.llvm::details::FixedOrScalableQuantity.base", [7 x i8] }
%"class.llvm::details::FixedOrScalableQuantity.base" = type <{ i64, i8 }>

; Function Attrs: mustprogress nounwind uwtable
define linkonce_odr hidden noundef ptr @_ZN4llvm6unwrapEP14LLVMOpaqueType(ptr noundef %0) #0 comdat {
  %2 = alloca ptr, align 8
  store ptr %0, ptr %2, align 8
  %3 = load ptr, ptr %2, align 8
  ret ptr %3
}

; Function Attrs: mustprogress nounwind uwtable
define linkonce_odr hidden noundef ptr @_ZN4llvm6unwrapEP20LLVMOpaqueTargetData(ptr noundef %0) #0 comdat {
  %2 = alloca ptr, align 8
  store ptr %0, ptr %2, align 8
  %3 = load ptr, ptr %2, align 8
  ret ptr %3
}

; Function Attrs: mustprogress nounwind uwtable
define dso_local i64 @LLVMSizeOfTypeInBits(ptr noundef %0, ptr noundef %1) #0 {
  %3 = alloca ptr, align 8
  %4 = alloca ptr, align 8
  %5 = alloca %"class.llvm::TypeSize", align 8
  %6 = alloca { i64, i8 }, align 8
  store ptr %0, ptr %3, align 8
  store ptr %1, ptr %4, align 8
  %7 = load ptr, ptr %3, align 8
  %8 = call noundef ptr @_ZN4llvm6unwrapEP20LLVMOpaqueTargetData(ptr noundef %7)
  %9 = load ptr, ptr %4, align 8
  %10 = call noundef ptr @_ZN4llvm6unwrapEP14LLVMOpaqueType(ptr noundef %9)
  %11 = call { i64, i8 } @_ZNK4llvm10DataLayout17getTypeSizeInBitsEPNS_4TypeE(ptr noundef nonnull align 8 dereferenceable(512) %8, ptr noundef %10)
  store { i64, i8 } %11, ptr %6, align 8
  call void @llvm.memcpy.p0.p0.i64(ptr align 8 %5, ptr align 8 %6, i64 9, i1 false)
  %12 = call noundef i64 @_ZNK4llvm8TypeSizecvmEv(ptr noundef nonnull align 8 dereferenceable(9) %5)
  ret i64 %12
}