; Function Attrs: mustprogress nounwind uwtable
define dso_local noundef i64 @LLVMSizeOfTypeInBits(ptr noundef nonnull %0, ptr noundef %1) local_unnamed_addr #0 {
  %3 = alloca %"class.llvm::TypeSize", align 8
  %4 = tail call { i64, i8 } @_ZNK4llvm10DataLayout17getTypeSizeInBitsEPNS_4TypeE(ptr noundef nonnull align 8 dereferenceable(512) %0, ptr noundef %1)
  %.fca.0.extract = extractvalue { i64, i8 } %4, 0
  %.fca.1.extract = extractvalue { i64, i8 } %4, 1
  store i64 %.fca.0.extract, ptr %3, align 8
  %.sroa.2.0..sroa_idx = getelementptr inbounds i8, ptr %3, i64 8
  store i8 %.fca.1.extract, ptr %.sroa.2.0..sroa_idx, align 8
  %5 = call noundef i64 @_ZNK4llvm8TypeSizecvmEv(ptr noundef nonnull align 8 dereferenceable(9) %3) #9
  ret i64 %5
}